
rohit5.elf:     file format elf32-avr

Sections:
Idx Name          Size      VMA       LMA       File off  Algn
  0 .text         0000008a  00000000  00000000  00000054  2**1
                  CONTENTS, ALLOC, LOAD, READONLY, CODE
  1 .debug_aranges 00000020  00000000  00000000  000000de  2**0
                  CONTENTS, READONLY, DEBUGGING
  2 .debug_pubnames 0000001b  00000000  00000000  000000fe  2**0
                  CONTENTS, READONLY, DEBUGGING
  3 .debug_info   0000009f  00000000  00000000  00000119  2**0
                  CONTENTS, READONLY, DEBUGGING
  4 .debug_abbrev 0000005b  00000000  00000000  000001b8  2**0
                  CONTENTS, READONLY, DEBUGGING
  5 .debug_line   00000080  00000000  00000000  00000213  2**0
                  CONTENTS, READONLY, DEBUGGING
  6 .debug_frame  00000020  00000000  00000000  00000294  2**2
                  CONTENTS, READONLY, DEBUGGING
  7 .debug_str    00000087  00000000  00000000  000002b4  2**0
                  CONTENTS, READONLY, DEBUGGING

Disassembly of section .text:

00000000 <__vectors>:
   0:	12 c0       	rjmp	.+36     	; 0x26 <__ctors_end>
   2:	2c c0       	rjmp	.+88     	; 0x5c <__bad_interrupt>
   4:	2b c0       	rjmp	.+86     	; 0x5c <__bad_interrupt>
   6:	2a c0       	rjmp	.+84     	; 0x5c <__bad_interrupt>
   8:	29 c0       	rjmp	.+82     	; 0x5c <__bad_interrupt>
   a:	28 c0       	rjmp	.+80     	; 0x5c <__bad_interrupt>
   c:	27 c0       	rjmp	.+78     	; 0x5c <__bad_interrupt>
   e:	26 c0       	rjmp	.+76     	; 0x5c <__bad_interrupt>
  10:	25 c0       	rjmp	.+74     	; 0x5c <__bad_interrupt>
  12:	24 c0       	rjmp	.+72     	; 0x5c <__bad_interrupt>
  14:	23 c0       	rjmp	.+70     	; 0x5c <__bad_interrupt>
  16:	22 c0       	rjmp	.+68     	; 0x5c <__bad_interrupt>
  18:	21 c0       	rjmp	.+66     	; 0x5c <__bad_interrupt>
  1a:	20 c0       	rjmp	.+64     	; 0x5c <__bad_interrupt>
  1c:	1f c0       	rjmp	.+62     	; 0x5c <__bad_interrupt>
  1e:	1e c0       	rjmp	.+60     	; 0x5c <__bad_interrupt>
  20:	1d c0       	rjmp	.+58     	; 0x5c <__bad_interrupt>
  22:	1c c0       	rjmp	.+56     	; 0x5c <__bad_interrupt>
  24:	1b c0       	rjmp	.+54     	; 0x5c <__bad_interrupt>

00000026 <__ctors_end>:
  26:	11 24       	eor	r1, r1
  28:	1f be       	out	0x3f, r1	; 63
  2a:	cf e5       	ldi	r28, 0x5F	; 95
  2c:	d4 e0       	ldi	r29, 0x04	; 4
  2e:	de bf       	out	0x3e, r29	; 62
  30:	cd bf       	out	0x3d, r28	; 61

00000032 <__do_copy_data>:
  32:	10 e0       	ldi	r17, 0x00	; 0
  34:	a0 e6       	ldi	r26, 0x60	; 96
  36:	b0 e0       	ldi	r27, 0x00	; 0
  38:	ea e8       	ldi	r30, 0x8A	; 138
  3a:	f0 e0       	ldi	r31, 0x00	; 0
  3c:	02 c0       	rjmp	.+4      	; 0x42 <.do_copy_data_start>

0000003e <.do_copy_data_loop>:
  3e:	05 90       	lpm	r0, Z+
  40:	0d 92       	st	X+, r0

00000042 <.do_copy_data_start>:
  42:	a0 36       	cpi	r26, 0x60	; 96
  44:	b1 07       	cpc	r27, r17
  46:	d9 f7       	brne	.-10     	; 0x3e <.do_copy_data_loop>

00000048 <__do_clear_bss>:
  48:	10 e0       	ldi	r17, 0x00	; 0
  4a:	a0 e6       	ldi	r26, 0x60	; 96
  4c:	b0 e0       	ldi	r27, 0x00	; 0
  4e:	01 c0       	rjmp	.+2      	; 0x52 <.do_clear_bss_start>

00000050 <.do_clear_bss_loop>:
  50:	1d 92       	st	X+, r1

00000052 <.do_clear_bss_start>:
  52:	a0 36       	cpi	r26, 0x60	; 96
  54:	b1 07       	cpc	r27, r17
  56:	e1 f7       	brne	.-8      	; 0x50 <.do_clear_bss_loop>
  58:	02 d0       	rcall	.+4      	; 0x5e <main>
  5a:	15 c0       	rjmp	.+42     	; 0x86 <_exit>

0000005c <__bad_interrupt>:
  5c:	d1 cf       	rjmp	.-94     	; 0x0 <__vectors>

0000005e <main>:
#include<avr/io.h>
main()
{
DDRB=0b11111110;
  5e:	8e ef       	ldi	r24, 0xFE	; 254
  60:	87 bb       	out	0x17, r24	; 23
  62:	80 e0       	ldi	r24, 0x00	; 0
  64:	90 e0       	ldi	r25, 0x00	; 0
  66:	20 e0       	ldi	r18, 0x00	; 0
  68:	30 e0       	ldi	r19, 0x00	; 0
  6a:	02 c0       	rjmp	.+4      	; 0x70 <main+0x12>
  6c:	80 e0       	ldi	r24, 0x00	; 0
  6e:	90 e0       	ldi	r25, 0x00	; 0
int f=0,x,c=0;
while(1)
{ x=PINB&0b00000001;
if(x==0b00000001 && f==0)
  70:	b0 9b       	sbis	0x16, 0	; 22
  72:	03 c0       	rjmp	.+6      	; 0x7a <main+0x1c>
  74:	81 e0       	ldi	r24, 0x01	; 1
  76:	90 e0       	ldi	r25, 0x00	; 0
  78:	fb cf       	rjmp	.-10     	; 0x70 <main+0x12>
f=1;
if(x==0b00000000 && f==1)
  7a:	01 97       	sbiw	r24, 0x01	; 1
  7c:	b9 f7       	brne	.-18     	; 0x6c <main+0xe>
{
c=c+1;
  7e:	2f 5f       	subi	r18, 0xFF	; 255
  80:	3f 4f       	sbci	r19, 0xFF	; 255
f=0;
PORTB=c;
  82:	28 bb       	out	0x18, r18	; 24
  84:	f3 cf       	rjmp	.-26     	; 0x6c <main+0xe>

00000086 <_exit>:
  86:	f8 94       	cli

00000088 <__stop_program>:
  88:	ff cf       	rjmp	.-2      	; 0x88 <__stop_program>
